; Function Attrs: nounwind uwtable
define ptr @l_Lake_DSL_expandCmdDo(ptr noundef %0) local_unnamed_addr #0 {
  %2 = load ptr, ptr @l_Lake_DSL_expandCmdDo___closed__4, align 8, !tbaa !4
  %3 = ptrtoint ptr %0 to i64
  %4 = and i64 %3, 1
  %.not = icmp eq i64 %4, 0
  br i1 %.not, label %5, label %lean_inc.exit.thread

5:                                                ; preds = %1
  %.val.i = load i32, ptr %0, align 4, !tbaa !8
  %6 = icmp sgt i32 %.val.i, 0
  br i1 %6, label %7, label %9, !prof !11

7:                                                ; preds = %5
  %8 = add nuw i32 %.val.i, 1
  store i32 %8, ptr %0, align 4, !tbaa !8
  br label %lean_inc.exit

9:                                                ; preds = %5
  %.not.i35 = icmp eq i32 %.val.i, 0
  br i1 %.not.i35, label %lean_inc.exit, label %10

10:                                               ; preds = %9
  tail call void @lean_inc_ref_cold(ptr noundef nonnull %0) #4
  br label %lean_inc.exit

lean_inc.exit:                                    ; preds = %10, %9, %7
  %11 = tail call zeroext i8 @l_Lean_Syntax_isOfKind(ptr noundef nonnull %0, ptr noundef %2) #4
  %12 = icmp eq i8 %11, 0
  br i1 %12, label %16, label %24

lean_inc.exit.thread:                             ; preds = %1
  %13 = tail call zeroext i8 @l_Lean_Syntax_isOfKind(ptr noundef %0, ptr noundef %2) #4
  %14 = icmp eq i8 %13, 0
  br i1 %14, label %lean_dec.exit, label %.thread39

.thread39:                                        ; preds = %lean_inc.exit.thread
  %15 = tail call ptr @l_Lean_Syntax_getArg(ptr noundef %0, ptr noundef nonnull inttoptr (i64 1 to ptr)) #4
  br label %lean_dec.exit26

16:                                               ; preds = %lean_inc.exit
  %17 = load i32, ptr %0, align 4, !tbaa !8
  %18 = icmp sgt i32 %17, 1
  br i1 %18, label %19, label %21, !prof !11

19:                                               ; preds = %16
  %20 = add nsw i32 %17, -1
  store i32 %20, ptr %0, align 4, !tbaa !8
  br label %lean_dec.exit

21:                                               ; preds = %16
  %.not.i33 = icmp eq i32 %17, 0
  br i1 %.not.i33, label %lean_dec.exit, label %22

22:                                               ; preds = %21
  tail call void @lean_dec_ref_cold(ptr noundef nonnull %0) #4
  br label %lean_dec.exit

lean_dec.exit:                                    ; preds = %lean_inc.exit.thread, %22, %21, %19
  %23 = load ptr, ptr @l_Lake_DSL_expandCmdDo___closed__5, align 8, !tbaa !4
  br label %lean_dec.exit28

24:                                               ; preds = %lean_inc.exit
  %25 = tail call ptr @l_Lean_Syntax_getArg(ptr noundef nonnull %0, ptr noundef nonnull inttoptr (i64 1 to ptr)) #4
  %26 = load i32, ptr %0, align 4, !tbaa !8
  %27 = icmp sgt i32 %26, 1
  br i1 %27, label %28, label %30, !prof !11

28:                                               ; preds = %24
  %29 = add nsw i32 %26, -1
  store i32 %29, ptr %0, align 4, !tbaa !8
  br label %lean_dec.exit26

30:                                               ; preds = %24
  %.not.i31 = icmp eq i32 %26, 0
  br i1 %.not.i31, label %lean_dec.exit26, label %31

31:                                               ; preds = %30
  tail call void @lean_dec_ref_cold(ptr noundef nonnull %0) #4
  br label %lean_dec.exit26

lean_dec.exit26:                                  ; preds = %31, %30, %28, %.thread39
  %32 = phi ptr [ %15, %.thread39 ], [ %25, %28 ], [ %25, %30 ], [ %25, %31 ]
  %33 = load ptr, ptr @l_Lake_DSL_expandCmdDo___closed__7, align 8, !tbaa !4
  %34 = ptrtoint ptr %32 to i64
  %35 = and i64 %34, 1
  %.not40 = icmp eq i64 %35, 0
  br i1 %.not40, label %36, label %lean_inc.exit25

36:                                               ; preds = %lean_dec.exit26
  %.val.i36 = load i32, ptr %32, align 4, !tbaa !8
  %37 = icmp sgt i32 %.val.i36, 0
  br i1 %37, label %38, label %40, !prof !11

38:                                               ; preds = %36
  %39 = add nuw i32 %.val.i36, 1
  store i32 %39, ptr %32, align 4, !tbaa !8
  br label %lean_inc.exit25

40:                                               ; preds = %36
  %.not.i37 = icmp eq i32 %.val.i36, 0
  br i1 %.not.i37, label %lean_inc.exit25, label %41

41:                                               ; preds = %40
  tail call void @lean_inc_ref_cold(ptr noundef nonnull %32) #4
  br label %lean_inc.exit25

lean_inc.exit25:                                  ; preds = %41, %40, %38, %lean_dec.exit26
  %42 = tail call zeroext i8 @l_Lean_Syntax_isOfKind(ptr noundef %32, ptr noundef %33) #4
  %43 = icmp eq i8 %42, 0
  br i1 %43, label %44, label %52

44:                                               ; preds = %lean_inc.exit25
  tail call void @lean_inc_heartbeat() #4
  %45 = tail call noalias ptr @mi_malloc_small(i64 noundef 24) #4
  %46 = icmp eq ptr %45, null
  br i1 %46, label %47, label %lean_alloc_ctor.exit

47:                                               ; preds = %44
  tail call void @lean_internal_panic_out_of_memory() #5
  unreachable

lean_alloc_ctor.exit:                             ; preds = %44
  %48 = getelementptr inbounds nuw i8, ptr %45, i64 4
  store i32 1, ptr %45, align 4, !tbaa !8
  store i32 16908312, ptr %48, align 4
  %49 = getelementptr inbounds nuw i8, ptr %45, i64 8
  store ptr %32, ptr %49, align 8, !tbaa !4
  %50 = getelementptr inbounds nuw i8, ptr %45, i64 16
  store ptr inttoptr (i64 1 to ptr), ptr %50, align 8, !tbaa !4
  %51 = tail call ptr @lean_array_mk(ptr noundef nonnull %45) #4
  br label %lean_dec.exit28

52:                                               ; preds = %lean_inc.exit25
  %53 = tail call ptr @l_Lean_Syntax_getArg(ptr noundef %32, ptr noundef nonnull inttoptr (i64 3 to ptr)) #4
  br i1 %.not40, label %54, label %lean_dec.exit27

54:                                               ; preds = %52
  %55 = load i32, ptr %32, align 4, !tbaa !8
  %56 = icmp sgt i32 %55, 1
  br i1 %56, label %57, label %59, !prof !11

57:                                               ; preds = %54
  %58 = add nsw i32 %55, -1
  store i32 %58, ptr %32, align 4, !tbaa !8
  br label %lean_dec.exit27

59:                                               ; preds = %54
  %.not.i29 = icmp eq i32 %55, 0
  br i1 %.not.i29, label %lean_dec.exit27, label %60

60:                                               ; preds = %59
  tail call void @lean_dec_ref_cold(ptr noundef nonnull %32) #4
  br label %lean_dec.exit27

lean_dec.exit27:                                  ; preds = %60, %59, %57, %52
  %61 = tail call ptr @l_Lean_Syntax_getArgs(ptr noundef %53) #4
  %62 = ptrtoint ptr %53 to i64
  %63 = and i64 %62, 1
  %.not41 = icmp eq i64 %63, 0
  br i1 %.not41, label %64, label %lean_dec.exit28

64:                                               ; preds = %lean_dec.exit27
  %65 = load i32, ptr %53, align 4, !tbaa !8
  %66 = icmp sgt i32 %65, 1
  br i1 %66, label %67, label %69, !prof !11

67:                                               ; preds = %64
  %68 = add nsw i32 %65, -1
  store i32 %68, ptr %53, align 4, !tbaa !8
  br label %lean_dec.exit28

69:                                               ; preds = %64
  %.not.i = icmp eq i32 %65, 0
  br i1 %.not.i, label %lean_dec.exit28, label %70

70:                                               ; preds = %69
  tail call void @lean_dec_ref_cold(ptr noundef nonnull %53) #4
  br label %lean_dec.exit28

lean_dec.exit28:                                  ; preds = %lean_dec.exit27, %67, %69, %70, %lean_alloc_ctor.exit, %lean_dec.exit
  %.0 = phi ptr [ %23, %lean_dec.exit ], [ %51, %lean_alloc_ctor.exit ], [ %61, %70 ], [ %61, %69 ], [ %61, %67 ], [ %61, %lean_dec.exit27 ]
  ret ptr %.0
}